target datalayout = "e-m:e-p270:32:32-p271:32:32-p272:64:64-i64:64-i128:128-f80:128-n8:16:32:64-S128"
target triple = "x86_64-pc-linux-gnu"

%struct._zval_struct = type { %union._zend_value, %union.anon, %union.anon.2 }
%union._zend_value = type { i64 }
%union.anon = type { i32 }
%union.anon.2 = type { i32 }
%struct._zend_refcounted_h = type { i32, %union.anon.3 }
%union.anon.3 = type { i32 }
%struct._Bucket = type { %struct._zval_struct, i64, ptr }
%struct._zend_string = type { %struct._zend_refcounted_h, i64, i64, [1 x i8] }

; Function Attrs: alwaysinline nounwind uwtable
define internal ptr @zend_print_ulong_to_buf(ptr noundef %0, i64 noundef %1) #5 {
  %3 = alloca ptr, align 8
  %4 = alloca i64, align 8
  store ptr %0, ptr %3, align 8, !tbaa !18
  store i64 %1, ptr %4, align 8, !tbaa !15
  %5 = load ptr, ptr %3, align 8, !tbaa !18
  store i8 0, ptr %5, align 1, !tbaa !17
  br label %6

6:                                                ; preds = %17, %2
  %7 = load i64, ptr %4, align 8, !tbaa !15
  %8 = urem i64 %7, 10
  %9 = trunc i64 %8 to i8
  %10 = sext i8 %9 to i32
  %11 = add nsw i32 %10, 48
  %12 = trunc i32 %11 to i8
  %13 = load ptr, ptr %3, align 8, !tbaa !18
  %14 = getelementptr inbounds i8, ptr %13, i32 -1
  store ptr %14, ptr %3, align 8, !tbaa !18
  store i8 %12, ptr %14, align 1, !tbaa !17
  %15 = load i64, ptr %4, align 8, !tbaa !15
  %16 = udiv i64 %15, 10
  store i64 %16, ptr %4, align 8, !tbaa !15
  br label %17

17:                                               ; preds = %6
  %18 = load i64, ptr %4, align 8, !tbaa !15
  %19 = icmp ugt i64 %18, 0
  br i1 %19, label %6, label %20

20:                                               ; preds = %17
  %21 = load ptr, ptr %3, align 8, !tbaa !18
  ret ptr %21
}

; Function Attrs: alwaysinline nounwind uwtable
define internal ptr @zend_print_long_to_buf(ptr noundef %0, i64 noundef %1) #5 {
  %3 = alloca ptr, align 8
  %4 = alloca ptr, align 8
  %5 = alloca i64, align 8
  %6 = alloca ptr, align 8
  store ptr %0, ptr %4, align 8, !tbaa !18
  store i64 %1, ptr %5, align 8, !tbaa !15
  %7 = load i64, ptr %5, align 8, !tbaa !15
  %8 = icmp slt i64 %7, 0
  br i1 %8, label %9, label %18

9:                                                ; preds = %2
  call void @llvm.lifetime.start.p0(i64 8, ptr %6) #17
  %10 = load ptr, ptr %4, align 8, !tbaa !18
  %11 = load i64, ptr %5, align 8, !tbaa !15
  %12 = xor i64 %11, -1
  %13 = add i64 %12, 1
  %14 = call ptr @zend_print_ulong_to_buf(ptr noundef %10, i64 noundef %13)
  store ptr %14, ptr %6, align 8, !tbaa !18
  %15 = load ptr, ptr %6, align 8, !tbaa !18
  %16 = getelementptr inbounds i8, ptr %15, i32 -1
  store ptr %16, ptr %6, align 8, !tbaa !18
  store i8 45, ptr %16, align 1, !tbaa !17
  %17 = load ptr, ptr %6, align 8, !tbaa !18
  store ptr %17, ptr %3, align 8
  call void @llvm.lifetime.end.p0(i64 8, ptr %6) #17
  br label %22

18:                                               ; preds = %2
  %19 = load ptr, ptr %4, align 8, !tbaa !18
  %20 = load i64, ptr %5, align 8, !tbaa !15
  %21 = call ptr @zend_print_ulong_to_buf(ptr noundef %19, i64 noundef %20)
  store ptr %21, ptr %3, align 8
  br label %22

22:                                               ; preds = %18, %9
  %23 = load ptr, ptr %3, align 8
  ret ptr %23
}

; Function Attrs: alwaysinline nounwind uwtable
define internal i32 @php_array_key_compare_string_unstable_i(ptr noundef %0, ptr noundef %1) #5 {
  %3 = alloca ptr, align 8
  %4 = alloca ptr, align 8
  %5 = alloca ptr, align 8
  %6 = alloca ptr, align 8
  %7 = alloca i64, align 8
  %8 = alloca i64, align 8
  %9 = alloca [21 x i8], align 16
  %10 = alloca [21 x i8], align 16
  store ptr %0, ptr %3, align 8, !tbaa !85
  store ptr %1, ptr %4, align 8, !tbaa !85
  call void @llvm.lifetime.start.p0(i64 8, ptr %5) #17
  call void @llvm.lifetime.start.p0(i64 8, ptr %6) #17
  call void @llvm.lifetime.start.p0(i64 8, ptr %7) #17
  call void @llvm.lifetime.start.p0(i64 8, ptr %8) #17
  call void @llvm.lifetime.start.p0(i64 21, ptr %9) #17
  call void @llvm.lifetime.start.p0(i64 21, ptr %10) #17
  %11 = load ptr, ptr %3, align 8, !tbaa !85
  %12 = getelementptr inbounds nuw %struct._Bucket, ptr %11, i32 0, i32 2
  %13 = load ptr, ptr %12, align 8, !tbaa !118
  %14 = icmp ne ptr %13, null
  br i1 %14, label %15, label %26

15:                                               ; preds = %2
  %16 = load ptr, ptr %3, align 8, !tbaa !85
  %17 = getelementptr inbounds nuw %struct._Bucket, ptr %16, i32 0, i32 2
  %18 = load ptr, ptr %17, align 8, !tbaa !118
  %19 = getelementptr inbounds nuw %struct._zend_string, ptr %18, i32 0, i32 3
  %20 = getelementptr inbounds [1 x i8], ptr %19, i64 0, i64 0
  store ptr %20, ptr %5, align 8, !tbaa !18
  %21 = load ptr, ptr %3, align 8, !tbaa !85
  %22 = getelementptr inbounds nuw %struct._Bucket, ptr %21, i32 0, i32 2
  %23 = load ptr, ptr %22, align 8, !tbaa !118
  %24 = getelementptr inbounds nuw %struct._zend_string, ptr %23, i32 0, i32 2
  %25 = load i64, ptr %24, align 8, !tbaa !119
  store i64 %25, ptr %7, align 8, !tbaa !15
  br label %41

26:                                               ; preds = %2
  %27 = getelementptr inbounds [21 x i8], ptr %9, i64 0, i64 0
  %28 = getelementptr inbounds nuw i8, ptr %27, i64 21
  %29 = getelementptr inbounds i8, ptr %28, i64 -1
  %30 = load ptr, ptr %3, align 8, !tbaa !85
  %31 = getelementptr inbounds nuw %struct._Bucket, ptr %30, i32 0, i32 1
  %32 = load i64, ptr %31, align 8, !tbaa !116
  %33 = call ptr @zend_print_long_to_buf(ptr noundef %29, i64 noundef %32)
  store ptr %33, ptr %5, align 8, !tbaa !18
  %34 = getelementptr inbounds [21 x i8], ptr %9, i64 0, i64 0
  %35 = getelementptr inbounds nuw i8, ptr %34, i64 21
  %36 = getelementptr inbounds i8, ptr %35, i64 -1
  %37 = load ptr, ptr %5, align 8, !tbaa !18
  %38 = ptrtoint ptr %36 to i64
  %39 = ptrtoint ptr %37 to i64
  %40 = sub i64 %38, %39
  store i64 %40, ptr %7, align 8, !tbaa !15
  br label %41

41:                                               ; preds = %26, %15
  %42 = load ptr, ptr %4, align 8, !tbaa !85
  %43 = getelementptr inbounds nuw %struct._Bucket, ptr %42, i32 0, i32 2
  %44 = load ptr, ptr %43, align 8, !tbaa !118
  %45 = icmp ne ptr %44, null
  br i1 %45, label %46, label %57

46:                                               ; preds = %41
  %47 = load ptr, ptr %4, align 8, !tbaa !85
  %48 = getelementptr inbounds nuw %struct._Bucket, ptr %47, i32 0, i32 2
  %49 = load ptr, ptr %48, align 8, !tbaa !118
  %50 = getelementptr inbounds nuw %struct._zend_string, ptr %49, i32 0, i32 3
  %51 = getelementptr inbounds [1 x i8], ptr %50, i64 0, i64 0
  store ptr %51, ptr %6, align 8, !tbaa !18
  %52 = load ptr, ptr %4, align 8, !tbaa !85
  %53 = getelementptr inbounds nuw %struct._Bucket, ptr %52, i32 0, i32 2
  %54 = load ptr, ptr %53, align 8, !tbaa !118
  %55 = getelementptr inbounds nuw %struct._zend_string, ptr %54, i32 0, i32 2
  %56 = load i64, ptr %55, align 8, !tbaa !119
  store i64 %56, ptr %8, align 8, !tbaa !15
  br label %72

57:                                               ; preds = %41
  %58 = getelementptr inbounds [21 x i8], ptr %10, i64 0, i64 0
  %59 = getelementptr inbounds nuw i8, ptr %58, i64 21
  %60 = getelementptr inbounds i8, ptr %59, i64 -1
  %61 = load ptr, ptr %4, align 8, !tbaa !85
  %62 = getelementptr inbounds nuw %struct._Bucket, ptr %61, i32 0, i32 1
  %63 = load i64, ptr %62, align 8, !tbaa !116
  %64 = call ptr @zend_print_long_to_buf(ptr noundef %60, i64 noundef %63)
  store ptr %64, ptr %6, align 8, !tbaa !18
  %65 = getelementptr inbounds [21 x i8], ptr %10, i64 0, i64 0
  %66 = getelementptr inbounds nuw i8, ptr %65, i64 21
  %67 = getelementptr inbounds i8, ptr %66, i64 -1
  %68 = load ptr, ptr %6, align 8, !tbaa !18
  %69 = ptrtoint ptr %67 to i64
  %70 = ptrtoint ptr %68 to i64
  %71 = sub i64 %69, %70
  store i64 %71, ptr %8, align 8, !tbaa !15
  br label %72

72:                                               ; preds = %57, %46
  %73 = load ptr, ptr %5, align 8, !tbaa !18
  %74 = load i64, ptr %7, align 8, !tbaa !15
  %75 = load ptr, ptr %6, align 8, !tbaa !18
  %76 = load i64, ptr %8, align 8, !tbaa !15
  %77 = call i32 @zend_binary_strcmp(ptr noundef %73, i64 noundef %74, ptr noundef %75, i64 noundef %76)
  call void @llvm.lifetime.end.p0(i64 21, ptr %10) #17
  call void @llvm.lifetime.end.p0(i64 21, ptr %9) #17
  call void @llvm.lifetime.end.p0(i64 8, ptr %8) #17
  call void @llvm.lifetime.end.p0(i64 8, ptr %7) #17
  call void @llvm.lifetime.end.p0(i64 8, ptr %6) #17
  call void @llvm.lifetime.end.p0(i64 8, ptr %5) #17
  ret i32 %77
}

; Function Attrs: noinline nounwind uwtable
define internal i32 @php_array_key_compare_string(ptr noundef %0, ptr noundef %1) #14 {
  %3 = alloca i32, align 4
  %4 = alloca ptr, align 8
  %5 = alloca ptr, align 8
  %6 = alloca i32, align 4
  %7 = alloca i32, align 4
  store ptr %0, ptr %4, align 8, !tbaa !85
  store ptr %1, ptr %5, align 8, !tbaa !85
  br label %8

8:                                                ; preds = %2
  call void @llvm.lifetime.start.p0(i64 4, ptr %6) #17
  %9 = load ptr, ptr %4, align 8, !tbaa !85
  %10 = load ptr, ptr %5, align 8, !tbaa !85
  %11 = call i32 @php_array_key_compare_string_unstable_i(ptr noundef %9, ptr noundef %10)
  store i32 %11, ptr %6, align 4, !tbaa !4
  %12 = load i32, ptr %6, align 4, !tbaa !4
  %13 = icmp ne i32 %12, 0
  %14 = xor i1 %13, true
  %15 = xor i1 %14, true
  %16 = zext i1 %15 to i32
  %17 = sext i32 %16 to i64
  %18 = call i64 @llvm.expect.i64(i64 %17, i64 1)
  %19 = icmp ne i64 %18, 0
  br i1 %19, label %20, label %22

20:                                               ; preds = %8
  %21 = load i32, ptr %6, align 4, !tbaa !4
  store i32 %21, ptr %3, align 4
  store i32 1, ptr %7, align 4
  br label %26

22:                                               ; preds = %8
  %23 = load ptr, ptr %4, align 8, !tbaa !85
  %24 = load ptr, ptr %5, align 8, !tbaa !85
  %25 = call i32 @stable_sort_fallback(ptr noundef %23, ptr noundef %24)
  store i32 %25, ptr %3, align 4
  store i32 1, ptr %7, align 4
  br label %26

26:                                               ; preds = %22, %20
  call void @llvm.lifetime.end.p0(i64 4, ptr %6) #17
  br label %27

27:                                               ; preds = %26
  %28 = load i32, ptr %3, align 4
  ret i32 %28
}