; Function Attrs: noinline nounwind uwtable
define internal i32 @php_array_key_compare_string(ptr noundef readonly captures(none) %0, ptr noundef readonly captures(none) %1) #16 {
  %3 = alloca [21 x i8], align 16
  %4 = alloca [21 x i8], align 16
  call void @llvm.lifetime.start.p0(i64 21, ptr nonnull %3) #21
  call void @llvm.lifetime.start.p0(i64 21, ptr nonnull %4) #21
  %5 = getelementptr inbounds nuw i8, ptr %0, i64 24
  %6 = load ptr, ptr %5, align 8, !tbaa !114
  %.not.i = icmp eq ptr %6, null
  br i1 %.not.i, label %11, label %7

7:                                                ; preds = %2
  %8 = getelementptr inbounds nuw i8, ptr %6, i64 24
  %9 = getelementptr inbounds nuw i8, ptr %6, i64 16
  %10 = load i64, ptr %9, align 8, !tbaa !118
  br label %35

11:                                               ; preds = %2
  %12 = getelementptr inbounds nuw i8, ptr %3, i64 20
  %13 = getelementptr inbounds nuw i8, ptr %0, i64 16
  %14 = load i64, ptr %13, align 8, !tbaa !116
  %15 = icmp slt i64 %14, 0
  br i1 %15, label %16, label %25

16:                                               ; preds = %11
  %17 = sub i64 0, %14
  store i8 0, ptr %12, align 4, !tbaa !8
  br label %18

18:                                               ; preds = %18, %16
  %.05.i.i = phi ptr [ %12, %16 ], [ %22, %18 ]
  %.0.i21.i = phi i64 [ %17, %16 ], [ %23, %18 ]
  %19 = urem i64 %.0.i21.i, 10
  %20 = trunc nuw nsw i64 %19 to i8
  %21 = or disjoint i8 %20, 48
  %22 = getelementptr inbounds i8, ptr %.05.i.i, i64 -1
  store i8 %21, ptr %22, align 1, !tbaa !8
  %23 = udiv i64 %.0.i21.i, 10
  %.not.i.i = icmp ult i64 %.0.i21.i, 10
  br i1 %.not.i.i, label %zend_print_ulong_to_buf.exit.i, label %18

zend_print_ulong_to_buf.exit.i:                   ; preds = %18
  %24 = getelementptr inbounds i8, ptr %.05.i.i, i64 -2
  store i8 45, ptr %24, align 1, !tbaa !8
  br label %zend_print_long_to_buf.exit20.i

25:                                               ; preds = %11
  store i8 0, ptr %12, align 4, !tbaa !8
  br label %26

26:                                               ; preds = %26, %25
  %.05.i22.i = phi ptr [ %12, %25 ], [ %30, %26 ]
  %.0.i23.i = phi i64 [ %14, %25 ], [ %31, %26 ]
  %27 = urem i64 %.0.i23.i, 10
  %28 = trunc nuw nsw i64 %27 to i8
  %29 = or disjoint i8 %28, 48
  %30 = getelementptr inbounds i8, ptr %.05.i22.i, i64 -1
  store i8 %29, ptr %30, align 1, !tbaa !8
  %31 = udiv i64 %.0.i23.i, 10
  %.not.i24.i = icmp ult i64 %.0.i23.i, 10
  br i1 %.not.i24.i, label %zend_print_long_to_buf.exit20.i, label %26

zend_print_long_to_buf.exit20.i:                  ; preds = %26, %zend_print_ulong_to_buf.exit.i
  %.0.i19.i = phi ptr [ %24, %zend_print_ulong_to_buf.exit.i ], [ %30, %26 ]
  %32 = ptrtoint ptr %12 to i64
  %33 = ptrtoint ptr %.0.i19.i to i64
  %34 = sub i64 %32, %33
  br label %35

35:                                               ; preds = %zend_print_long_to_buf.exit20.i, %7
  %.015.i = phi ptr [ %8, %7 ], [ %.0.i19.i, %zend_print_long_to_buf.exit20.i ]
  %.013.i = phi i64 [ %10, %7 ], [ %34, %zend_print_long_to_buf.exit20.i ]
  %36 = getelementptr inbounds nuw i8, ptr %1, i64 24
  %37 = load ptr, ptr %36, align 8, !tbaa !114
  %.not18.i = icmp eq ptr %37, null
  br i1 %.not18.i, label %42, label %38

38:                                               ; preds = %35
  %39 = getelementptr inbounds nuw i8, ptr %37, i64 24
  %40 = getelementptr inbounds nuw i8, ptr %37, i64 16
  %41 = load i64, ptr %40, align 8, !tbaa !118
  br label %php_array_key_compare_string_unstable_i.exit

42:                                               ; preds = %35
  %43 = getelementptr inbounds nuw i8, ptr %4, i64 20
  %44 = getelementptr inbounds nuw i8, ptr %1, i64 16
  %45 = load i64, ptr %44, align 8, !tbaa !116
  %46 = icmp slt i64 %45, 0
  br i1 %46, label %47, label %56

47:                                               ; preds = %42
  %48 = sub i64 0, %45
  store i8 0, ptr %43, align 4, !tbaa !8
  br label %49

49:                                               ; preds = %49, %47
  %.05.i26.i = phi ptr [ %43, %47 ], [ %53, %49 ]
  %.0.i27.i = phi i64 [ %48, %47 ], [ %54, %49 ]
  %50 = urem i64 %.0.i27.i, 10
  %51 = trunc nuw nsw i64 %50 to i8
  %52 = or disjoint i8 %51, 48
  %53 = getelementptr inbounds i8, ptr %.05.i26.i, i64 -1
  store i8 %52, ptr %53, align 1, !tbaa !8
  %54 = udiv i64 %.0.i27.i, 10
  %.not.i28.i = icmp ult i64 %.0.i27.i, 10
  br i1 %.not.i28.i, label %zend_print_ulong_to_buf.exit29.i, label %49

zend_print_ulong_to_buf.exit29.i:                 ; preds = %49
  %55 = getelementptr inbounds i8, ptr %.05.i26.i, i64 -2
  store i8 45, ptr %55, align 1, !tbaa !8
  br label %zend_print_long_to_buf.exit.i

56:                                               ; preds = %42
  store i8 0, ptr %43, align 4, !tbaa !8
  br label %57

57:                                               ; preds = %57, %56
  %.05.i30.i = phi ptr [ %43, %56 ], [ %61, %57 ]
  %.0.i31.i = phi i64 [ %45, %56 ], [ %62, %57 ]
  %58 = urem i64 %.0.i31.i, 10
  %59 = trunc nuw nsw i64 %58 to i8
  %60 = or disjoint i8 %59, 48
  %61 = getelementptr inbounds i8, ptr %.05.i30.i, i64 -1
  store i8 %60, ptr %61, align 1, !tbaa !8
  %62 = udiv i64 %.0.i31.i, 10
  %.not.i32.i = icmp ult i64 %.0.i31.i, 10
  br i1 %.not.i32.i, label %zend_print_long_to_buf.exit.i, label %57

zend_print_long_to_buf.exit.i:                    ; preds = %57, %zend_print_ulong_to_buf.exit29.i
  %.0.i.i = phi ptr [ %55, %zend_print_ulong_to_buf.exit29.i ], [ %61, %57 ]
  %63 = ptrtoint ptr %43 to i64
  %64 = ptrtoint ptr %.0.i.i to i64
  %65 = sub i64 %63, %64
  br label %php_array_key_compare_string_unstable_i.exit

php_array_key_compare_string_unstable_i.exit:     ; preds = %38, %zend_print_long_to_buf.exit.i
  %.014.i = phi ptr [ %39, %38 ], [ %.0.i.i, %zend_print_long_to_buf.exit.i ]
  %.0.i = phi i64 [ %41, %38 ], [ %65, %zend_print_long_to_buf.exit.i ]
  %66 = call i32 @zend_binary_strcmp(ptr noundef nonnull %.015.i, i64 noundef %.013.i, ptr noundef nonnull %.014.i, i64 noundef %.0.i) #21
  call void @llvm.lifetime.end.p0(i64 21, ptr nonnull %4) #21
  call void @llvm.lifetime.end.p0(i64 21, ptr nonnull %3) #21
  %.not = icmp eq i32 %66, 0
  br i1 %.not, label %67, label %71, !prof !14

67:                                               ; preds = %php_array_key_compare_string_unstable_i.exit
  %68 = getelementptr i8, ptr %0, i64 12
  %.val = load i32, ptr %68, align 4, !tbaa !8
  %69 = getelementptr i8, ptr %1, i64 12
  %.val7 = load i32, ptr %69, align 4, !tbaa !8
  %70 = call fastcc i32 @stable_sort_fallback(i32 %.val, i32 %.val7)
  br label %71

71:                                               ; preds = %php_array_key_compare_string_unstable_i.exit, %67
  %.0 = phi i32 [ %70, %67 ], [ %66, %php_array_key_compare_string_unstable_i.exit ]
  ret i32 %.0
}